; Function Attrs: mustprogress nounwind uwtable
define dso_local noundef ptr @_ZNK4llvm10AsmPrinter28getSymbolWithGlobalValueBaseEPKNS_11GlobalValueENS_9StringRefE(ptr nocapture noundef nonnull readonly align 8 dereferenceable(785) %0, ptr noundef %1, ptr %2, i64 %3) local_unnamed_addr #0 align 2 {
  %5 = getelementptr inbounds nuw i8, ptr %0, i64 56
  %6 = load ptr, ptr %5, align 8
  %7 = load ptr, ptr %6, align 8
  %8 = getelementptr inbounds i8, ptr %7, i64 24
  %9 = load ptr, ptr %8, align 8
  %10 = tail call noundef nonnull align 8 dereferenceable(968) ptr %9(ptr noundef nonnull align 8 dereferenceable(1232) %6) #33
  %11 = load ptr, ptr %5, align 8
  %12 = tail call noundef ptr @_ZNK4llvm24TargetLoweringObjectFile28getSymbolWithGlobalValueBaseEPKNS_11GlobalValueENS_9StringRefERKNS_13TargetMachineE(ptr noundef nonnull align 8 dereferenceable(968) %10, ptr noundef %1, ptr %2, i64 %3, ptr noundef nonnull align 8 dereferenceable(1232) %11) #33
  ret ptr %12
}